target datalayout = "e-m:e-p270:32:32-p271:32:32-p272:64:64-i64:64-i128:128-f80:128-n8:16:32:64-S128"
target triple = "x86_64-pc-linux-gnu"

%"class.clang::SourceLocation" = type { i32 }
%"class.clang::FullSourceLoc" = type { %"class.clang::SourceLocation", ptr }
%"struct.std::_List_const_iterator" = type { ptr }
%"class.clang::arcmt::CapturedDiagList" = type { %"class.std::__cxx11::list" }
%"class.std::__cxx11::list" = type { %"class.std::__cxx11::_List_base" }
%"class.std::__cxx11::_List_base" = type { %"struct.std::__cxx11::_List_base<clang::StoredDiagnostic, std::allocator<clang::StoredDiagnostic>>::_List_impl" }
%"struct.std::__cxx11::_List_base<clang::StoredDiagnostic, std::allocator<clang::StoredDiagnostic>>::_List_impl" = type { %"struct.std::__detail::_List_node_header" }
%"struct.std::__detail::_List_node_header" = type { %"struct.std::__detail::_List_node_base", i64 }
%"struct.std::__detail::_List_node_base" = type { ptr, ptr }
%"class.clang::StoredDiagnostic" = type { i32, i32, %"class.clang::FullSourceLoc", %"class.std::__cxx11::basic_string", %"class.std::vector", %"class.std::vector.6" }
%"class.std::__cxx11::basic_string" = type { %"struct.std::__cxx11::basic_string<char>::_Alloc_hider", i64, %union.anon }
%"struct.std::__cxx11::basic_string<char>::_Alloc_hider" = type { ptr }
%union.anon = type { i64, [8 x i8] }
%"class.std::vector" = type { %"struct.std::_Vector_base" }
%"struct.std::_Vector_base" = type { %"struct.std::_Vector_base<clang::CharSourceRange, std::allocator<clang::CharSourceRange>>::_Vector_impl" }
%"struct.std::_Vector_base<clang::CharSourceRange, std::allocator<clang::CharSourceRange>>::_Vector_impl" = type { %"struct.std::_Vector_base<clang::CharSourceRange, std::allocator<clang::CharSourceRange>>::_Vector_impl_data" }
%"struct.std::_Vector_base<clang::CharSourceRange, std::allocator<clang::CharSourceRange>>::_Vector_impl_data" = type { ptr, ptr, ptr }
%"class.std::vector.6" = type { %"struct.std::_Vector_base.7" }
%"struct.std::_Vector_base.7" = type { %"struct.std::_Vector_base<clang::FixItHint, std::allocator<clang::FixItHint>>::_Vector_impl" }
%"struct.std::_Vector_base<clang::FixItHint, std::allocator<clang::FixItHint>>::_Vector_impl" = type { %"struct.std::_Vector_base<clang::FixItHint, std::allocator<clang::FixItHint>>::_Vector_impl_data" }
%"struct.std::_Vector_base<clang::FixItHint, std::allocator<clang::FixItHint>>::_Vector_impl_data" = type { ptr, ptr, ptr }
%"struct.std::_List_node" = type { %"struct.std::__detail::_List_node_base", %"struct.__gnu_cxx::__aligned_membuf" }
%"struct.__gnu_cxx::__aligned_membuf" = type { [104 x i8] }

; Function Attrs: mustprogress nounwind uwtable
define linkonce_odr hidden noundef ptr @_ZNK9__gnu_cxx16__aligned_membufIN5clang16StoredDiagnosticEE7_M_addrEv(ptr noundef nonnull align 8 dereferenceable(104) %0) #0 comdat align 2 {
  %2 = alloca ptr, align 8
  store ptr %0, ptr %2, align 8
  %3 = load ptr, ptr %2, align 8
  %4 = getelementptr inbounds nuw %"struct.__gnu_cxx::__aligned_membuf", ptr %3, i32 0, i32 0
  ret ptr %4
}

; Function Attrs: mustprogress nounwind uwtable
define linkonce_odr hidden noundef ptr @_ZNK9__gnu_cxx16__aligned_membufIN5clang16StoredDiagnosticEE6_M_ptrEv(ptr noundef nonnull align 8 dereferenceable(104) %0) #0 comdat align 2 {
  %2 = alloca ptr, align 8
  store ptr %0, ptr %2, align 8
  %3 = load ptr, ptr %2, align 8
  %4 = call noundef ptr @_ZNK9__gnu_cxx16__aligned_membufIN5clang16StoredDiagnosticEE7_M_addrEv(ptr noundef nonnull align 8 dereferenceable(104) %3) #11
  ret ptr %4
}

; Function Attrs: mustprogress nounwind uwtable
define linkonce_odr hidden noundef ptr @_ZNKSt10_List_nodeIN5clang16StoredDiagnosticEE9_M_valptrEv(ptr noundef nonnull align 8 dereferenceable(120) %0) #0 comdat align 2 {
  %2 = alloca ptr, align 8
  store ptr %0, ptr %2, align 8
  %3 = load ptr, ptr %2, align 8
  %4 = getelementptr inbounds nuw %"struct.std::_List_node", ptr %3, i32 0, i32 1
  %5 = call noundef ptr @_ZNK9__gnu_cxx16__aligned_membufIN5clang16StoredDiagnosticEE6_M_ptrEv(ptr noundef nonnull align 8 dereferenceable(104) %4) #11
  ret ptr %5
}

; Function Attrs: mustprogress nounwind uwtable
define linkonce_odr hidden void @_ZNSt20_List_const_iteratorIN5clang16StoredDiagnosticEEC2EPKNSt8__detail15_List_node_baseE(ptr noundef nonnull align 8 dereferenceable(8) %0, ptr noundef %1) unnamed_addr #0 comdat align 2 {
  %3 = alloca ptr, align 8
  %4 = alloca ptr, align 8
  store ptr %0, ptr %3, align 8
  store ptr %1, ptr %4, align 8
  %5 = load ptr, ptr %3, align 8
  %6 = getelementptr inbounds nuw %"struct.std::_List_const_iterator", ptr %5, i32 0, i32 0
  %7 = load ptr, ptr %4, align 8
  store ptr %7, ptr %6, align 8
  ret void
}

; Function Attrs: mustprogress nounwind uwtable
define linkonce_odr hidden noundef nonnull align 8 dereferenceable(8) ptr @_ZNSt20_List_const_iteratorIN5clang16StoredDiagnosticEEppEv(ptr noundef nonnull align 8 dereferenceable(8) %0) #0 comdat align 2 {
  %2 = alloca ptr, align 8
  store ptr %0, ptr %2, align 8
  %3 = load ptr, ptr %2, align 8
  %4 = getelementptr inbounds nuw %"struct.std::_List_const_iterator", ptr %3, i32 0, i32 0
  %5 = load ptr, ptr %4, align 8
  %6 = getelementptr inbounds nuw %"struct.std::__detail::_List_node_base", ptr %5, i32 0, i32 0
  %7 = load ptr, ptr %6, align 8
  %8 = getelementptr inbounds nuw %"struct.std::_List_const_iterator", ptr %3, i32 0, i32 0
  store ptr %7, ptr %8, align 8
  ret ptr %3
}

; Function Attrs: mustprogress nounwind uwtable
define linkonce_odr hidden noundef i32 @_ZNK5clang16StoredDiagnostic8getLevelEv(ptr noundef nonnull align 8 dereferenceable(104) %0) #0 comdat align 2 {
  %2 = alloca ptr, align 8
  store ptr %0, ptr %2, align 8
  %3 = load ptr, ptr %2, align 8
  %4 = getelementptr inbounds nuw %"class.clang::StoredDiagnostic", ptr %3, i32 0, i32 1
  %5 = load i32, ptr %4, align 4
  ret i32 %5
}

; Function Attrs: mustprogress nounwind uwtable
define linkonce_odr hidden noundef ptr @_ZNKSt20_List_const_iteratorIN5clang16StoredDiagnosticEEptEv(ptr noundef nonnull align 8 dereferenceable(8) %0) #0 comdat align 2 {
  %2 = alloca ptr, align 8
  store ptr %0, ptr %2, align 8
  %3 = load ptr, ptr %2, align 8
  %4 = getelementptr inbounds nuw %"struct.std::_List_const_iterator", ptr %3, i32 0, i32 0
  %5 = load ptr, ptr %4, align 8
  %6 = call noundef ptr @_ZNKSt10_List_nodeIN5clang16StoredDiagnosticEE9_M_valptrEv(ptr noundef nonnull align 8 dereferenceable(120) %5)
  ret ptr %6
}

; Function Attrs: mustprogress nounwind uwtable
define linkonce_odr noundef zeroext i1 @_ZStneRKSt20_List_const_iteratorIN5clang16StoredDiagnosticEES4_(ptr noundef nonnull align 8 dereferenceable(8) %0, ptr noundef nonnull align 8 dereferenceable(8) %1) #0 comdat {
  %3 = alloca ptr, align 8
  %4 = alloca ptr, align 8
  store ptr %0, ptr %3, align 8
  store ptr %1, ptr %4, align 8
  %5 = load ptr, ptr %3, align 8
  %6 = getelementptr inbounds nuw %"struct.std::_List_const_iterator", ptr %5, i32 0, i32 0
  %7 = load ptr, ptr %6, align 8
  %8 = load ptr, ptr %4, align 8
  %9 = getelementptr inbounds nuw %"struct.std::_List_const_iterator", ptr %8, i32 0, i32 0
  %10 = load ptr, ptr %9, align 8
  %11 = icmp ne ptr %7, %10
  ret i1 %11
}

; Function Attrs: mustprogress nounwind uwtable
define linkonce_odr hidden ptr @_ZNKSt7__cxx114listIN5clang16StoredDiagnosticESaIS2_EE3endEv(ptr noundef nonnull align 8 dereferenceable(24) %0) #0 comdat align 2 {
  %2 = alloca %"struct.std::_List_const_iterator", align 8
  %3 = alloca ptr, align 8
  store ptr %0, ptr %3, align 8
  %4 = load ptr, ptr %3, align 8
  %5 = getelementptr inbounds nuw %"class.std::__cxx11::_List_base", ptr %4, i32 0, i32 0
  %6 = getelementptr inbounds nuw %"struct.std::__cxx11::_List_base<clang::StoredDiagnostic, std::allocator<clang::StoredDiagnostic>>::_List_impl", ptr %5, i32 0, i32 0
  call void @_ZNSt20_List_const_iteratorIN5clang16StoredDiagnosticEEC2EPKNSt8__detail15_List_node_baseE(ptr noundef nonnull align 8 dereferenceable(8) %2, ptr noundef %6) #11
  %7 = getelementptr inbounds nuw %"struct.std::_List_const_iterator", ptr %2, i32 0, i32 0
  %8 = load ptr, ptr %7, align 8
  ret ptr %8
}

; Function Attrs: mustprogress nounwind uwtable
define linkonce_odr hidden ptr @_ZNKSt7__cxx114listIN5clang16StoredDiagnosticESaIS2_EE5beginEv(ptr noundef nonnull align 8 dereferenceable(24) %0) #0 comdat align 2 {
  %2 = alloca %"struct.std::_List_const_iterator", align 8
  %3 = alloca ptr, align 8
  store ptr %0, ptr %3, align 8
  %4 = load ptr, ptr %3, align 8
  %5 = getelementptr inbounds nuw %"class.std::__cxx11::_List_base", ptr %4, i32 0, i32 0
  %6 = getelementptr inbounds nuw %"struct.std::__cxx11::_List_base<clang::StoredDiagnostic, std::allocator<clang::StoredDiagnostic>>::_List_impl", ptr %5, i32 0, i32 0
  %7 = getelementptr inbounds nuw %"struct.std::__detail::_List_node_base", ptr %6, i32 0, i32 0
  %8 = load ptr, ptr %7, align 8
  call void @_ZNSt20_List_const_iteratorIN5clang16StoredDiagnosticEEC2EPKNSt8__detail15_List_node_baseE(ptr noundef nonnull align 8 dereferenceable(8) %2, ptr noundef %8) #11
  %9 = getelementptr inbounds nuw %"struct.std::_List_const_iterator", ptr %2, i32 0, i32 0
  %10 = load ptr, ptr %9, align 8
  ret ptr %10
}

; Function Attrs: mustprogress nounwind uwtable
define dso_local noundef zeroext i1 @_ZNK5clang5arcmt16CapturedDiagList9hasErrorsEv(ptr noundef nonnull align 8 dereferenceable(24) %0) #0 align 2 {
  %2 = alloca i1, align 1
  %3 = alloca ptr, align 8
  %4 = alloca %"struct.std::_List_const_iterator", align 8
  %5 = alloca %"struct.std::_List_const_iterator", align 8
  store ptr %0, ptr %3, align 8
  %6 = load ptr, ptr %3, align 8
  %7 = getelementptr inbounds nuw %"class.clang::arcmt::CapturedDiagList", ptr %6, i32 0, i32 0
  %8 = call ptr @_ZNKSt7__cxx114listIN5clang16StoredDiagnosticESaIS2_EE5beginEv(ptr noundef nonnull align 8 dereferenceable(24) %7) #11
  %9 = getelementptr inbounds nuw %"struct.std::_List_const_iterator", ptr %4, i32 0, i32 0
  store ptr %8, ptr %9, align 8
  %10 = getelementptr inbounds nuw %"class.clang::arcmt::CapturedDiagList", ptr %6, i32 0, i32 0
  %11 = call ptr @_ZNKSt7__cxx114listIN5clang16StoredDiagnosticESaIS2_EE3endEv(ptr noundef nonnull align 8 dereferenceable(24) %10) #11
  %12 = getelementptr inbounds nuw %"struct.std::_List_const_iterator", ptr %5, i32 0, i32 0
  store ptr %11, ptr %12, align 8
  br label %13

13:                                               ; preds = %21, %1
  %14 = call noundef zeroext i1 @_ZStneRKSt20_List_const_iteratorIN5clang16StoredDiagnosticEES4_(ptr noundef nonnull align 8 dereferenceable(8) %4, ptr noundef nonnull align 8 dereferenceable(8) %5) #11
  br i1 %14, label %15, label %23

15:                                               ; preds = %13
  %16 = call noundef ptr @_ZNKSt20_List_const_iteratorIN5clang16StoredDiagnosticEEptEv(ptr noundef nonnull align 8 dereferenceable(8) %4) #11
  %17 = call noundef i32 @_ZNK5clang16StoredDiagnostic8getLevelEv(ptr noundef nonnull align 8 dereferenceable(104) %16)
  %18 = icmp sge i32 %17, 4
  br i1 %18, label %19, label %20

19:                                               ; preds = %15
  store i1 true, ptr %2, align 1
  br label %24

20:                                               ; preds = %15
  br label %21

21:                                               ; preds = %20
  %22 = call noundef nonnull align 8 dereferenceable(8) ptr @_ZNSt20_List_const_iteratorIN5clang16StoredDiagnosticEEppEv(ptr noundef nonnull align 8 dereferenceable(8) %4) #11
  br label %13, !llvm.loop !10

23:                                               ; preds = %13
  store i1 false, ptr %2, align 1
  br label %24

24:                                               ; preds = %23, %19
  %25 = load i1, ptr %2, align 1
  ret i1 %25
}