; Function Attrs: mustprogress nofree norecurse nosync nounwind willreturn memory(read, inaccessiblemem: none) uwtable
define dso_local noundef zeroext i1 @_ZNK5clang5arcmt16CapturedDiagList9hasErrorsEv(ptr noundef nonnull readonly align 8 dereferenceable(24) %0) local_unnamed_addr #3 align 2 {
  br label %2

2:                                                ; preds = %3, %1
  %.sroa.02.0.in = phi ptr [ %0, %1 ], [ %.sroa.02.0, %3 ]
  %.sroa.02.0 = load ptr, ptr %.sroa.02.0.in, align 8
  %.not.not.not.not.not = icmp ne ptr %.sroa.02.0, %0
  br i1 %.not.not.not.not.not, label %3, label %7

3:                                                ; preds = %2
  %4 = getelementptr inbounds i8, ptr %.sroa.02.0, i64 20
  %5 = load i32, ptr %4, align 4
  %6 = icmp sgt i32 %5, 3
  br i1 %6, label %7, label %2, !llvm.loop !12

7:                                                ; preds = %2, %3
  ret i1 %.not.not.not.not.not
}